target datalayout = "e-m:e-p270:32:32-p271:32:32-p272:64:64-i64:64-i128:128-f80:128-n8:16:32:64-S128"
target triple = "x86_64-pc-linux-gnu"

@stderr = external global ptr, align 8
@stdout = external global ptr, align 8
@usageFmt = internal global ptr @.str.126, align 8
@neatoFlags = internal global ptr @.str.127, align 8
@fdpFlags = internal global ptr @.str.128, align 8
@configFlags = internal global ptr @.str.129, align 8
@genericItems = internal global ptr @.str.130, align 8
@neatoItems = internal global ptr @.str.131, align 8
@fdpItems = internal global ptr @.str.132, align 8
@configItems = internal global ptr @.str.133, align 8
@GvExitOnUsage = external global i32, align 4

; Function Attrs: nounwind uwtable
define i32 @dotneato_usage(ptr noundef %0, i32 noundef %1) #0 {
  %3 = alloca ptr, align 8
  %4 = alloca i32, align 4
  %5 = alloca ptr, align 8
  store ptr %0, ptr %3, align 8, !tbaa !3
  store i32 %1, ptr %4, align 4, !tbaa !8
  call void @llvm.lifetime.start.p0(i64 8, ptr %5) #16
  %6 = load i32, ptr %4, align 4, !tbaa !8
  %7 = icmp sgt i32 %6, 0
  br i1 %7, label %8, label %10

8:                                                ; preds = %2
  %9 = load ptr, ptr @stderr, align 8, !tbaa !10
  store ptr %9, ptr %5, align 8, !tbaa !10
  br label %12

10:                                               ; preds = %2
  %11 = load ptr, ptr @stdout, align 8, !tbaa !10
  store ptr %11, ptr %5, align 8, !tbaa !10
  br label %12

12:                                               ; preds = %10, %8
  %13 = load ptr, ptr %5, align 8, !tbaa !10
  %14 = load ptr, ptr @usageFmt, align 8, !tbaa !3
  %15 = load ptr, ptr %3, align 8, !tbaa !3
  %16 = call i32 (ptr, ptr, ...) @fprintf(ptr noundef %13, ptr noundef %14, ptr noundef %15) #16
  %17 = load ptr, ptr @neatoFlags, align 8, !tbaa !3
  %18 = load ptr, ptr %5, align 8, !tbaa !10
  %19 = call i32 @fputs(ptr noundef %17, ptr noundef %18)
  %20 = load ptr, ptr @fdpFlags, align 8, !tbaa !3
  %21 = load ptr, ptr %5, align 8, !tbaa !10
  %22 = call i32 @fputs(ptr noundef %20, ptr noundef %21)
  %23 = load ptr, ptr @configFlags, align 8, !tbaa !3
  %24 = load ptr, ptr %5, align 8, !tbaa !10
  %25 = call i32 @fputs(ptr noundef %23, ptr noundef %24)
  %26 = load ptr, ptr @genericItems, align 8, !tbaa !3
  %27 = load ptr, ptr %5, align 8, !tbaa !10
  %28 = call i32 @fputs(ptr noundef %26, ptr noundef %27)
  %29 = load ptr, ptr @neatoItems, align 8, !tbaa !3
  %30 = load ptr, ptr %5, align 8, !tbaa !10
  %31 = call i32 @fputs(ptr noundef %29, ptr noundef %30)
  %32 = load ptr, ptr @fdpItems, align 8, !tbaa !3
  %33 = load ptr, ptr %5, align 8, !tbaa !10
  %34 = call i32 @fputs(ptr noundef %32, ptr noundef %33)
  %35 = load ptr, ptr @configItems, align 8, !tbaa !3
  %36 = load ptr, ptr %5, align 8, !tbaa !10
  %37 = call i32 @fputs(ptr noundef %35, ptr noundef %36)
  %38 = load i32, ptr @GvExitOnUsage, align 4, !tbaa !8
  %39 = icmp ne i32 %38, 0
  br i1 %39, label %40, label %45

40:                                               ; preds = %12
  %41 = load i32, ptr %4, align 4, !tbaa !8
  %42 = icmp sge i32 %41, 0
  br i1 %42, label %43, label %45

43:                                               ; preds = %40
  %44 = load i32, ptr %4, align 4, !tbaa !8
  call void @graphviz_exit(i32 noundef %44) #17
  unreachable

45:                                               ; preds = %40, %12
  %46 = load i32, ptr %4, align 4, !tbaa !8
  %47 = add nsw i32 %46, 1
  call void @llvm.lifetime.end.p0(i64 8, ptr %5) #16
  ret i32 %47
}