; Function Attrs: nofree nounwind uwtable
define range(i32 -2147483647, -2147483648) i32 @dotneato_usage(ptr noundef %0, i32 noundef %1) local_unnamed_addr #0 {
  %3 = icmp sgt i32 %1, 0
  %stderr.val = load ptr, ptr @stderr, align 8
  %stdout.val = load ptr, ptr @stdout, align 8
  %.0 = select i1 %3, ptr %stderr.val, ptr %stdout.val
  %4 = tail call i32 (ptr, ptr, ...) @fprintf(ptr noundef %.0, ptr noundef nonnull @.str.126, ptr noundef %0) #24
  %5 = tail call i64 @fwrite(ptr nonnull @.str.127, i64 47, i64 1, ptr %.0)
  %6 = tail call i64 @fwrite(ptr nonnull @.str.128, i64 59, i64 1, ptr %.0)
  %7 = tail call i64 @fwrite(ptr nonnull @.str.129, i64 39, i64 1, ptr %.0)
  %8 = tail call i64 @fwrite(ptr nonnull @.str.130, i64 788, i64 1, ptr %.0)
  %9 = tail call i64 @fwrite(ptr nonnull @.str.131, i64 68, i64 1, ptr %.0)
  %10 = tail call i64 @fwrite(ptr nonnull @.str.132, i64 262, i64 1, ptr %.0)
  %11 = tail call i64 @fwrite(ptr nonnull @.str.133, i64 182, i64 1, ptr %.0)
  %12 = load i32, ptr @GvExitOnUsage, align 4, !tbaa !3
  %13 = icmp ne i32 %12, 0
  %14 = icmp sgt i32 %1, -1
  %or.cond = and i1 %14, %13
  br i1 %or.cond, label %15, label %16

15:                                               ; preds = %2
  tail call fastcc void @graphviz_exit(i32 noundef %1) #25
  unreachable

16:                                               ; preds = %2
  %17 = add nsw i32 %1, 1
  ret i32 %17
}